target datalayout = "e-m:e-p270:32:32-p271:32:32-p272:64:64-i64:64-i128:128-f80:128-n8:16:32:64-S128"
target triple = "x86_64-pc-linux-gnu"

%struct.cdf_header_t = type { i64, [2 x i64], i16, i16, i16, i16, i16, [10 x i8], i32, i32, [4 x i8], i32, i32, i32, i32, i32, [109 x i32] }
%struct.cdf_stream_t = type { ptr, i64, i64, i64 }

; Function Attrs: nounwind uwtable
define hidden i64 @cdf_read_short_sector(ptr noundef %0, ptr noundef %1, i64 noundef %2, i64 noundef %3, ptr noundef %4, i32 noundef %5) #0 {
  %7 = alloca i64, align 8
  %8 = alloca ptr, align 8
  %9 = alloca ptr, align 8
  %10 = alloca i64, align 8
  %11 = alloca i64, align 8
  %12 = alloca ptr, align 8
  %13 = alloca i32, align 4
  %14 = alloca i64, align 8
  %15 = alloca i64, align 8
  %16 = alloca i32, align 4
  store ptr %0, ptr %8, align 8, !tbaa !16
  store ptr %1, ptr %9, align 8, !tbaa !16
  store i64 %2, ptr %10, align 8, !tbaa !14
  store i64 %3, ptr %11, align 8, !tbaa !14
  store ptr %4, ptr %12, align 8, !tbaa !16
  store i32 %5, ptr %13, align 4, !tbaa !12
  call void @llvm.lifetime.start.p0(i64 8, ptr %14) #13
  %17 = load ptr, ptr %12, align 8, !tbaa !16
  %18 = getelementptr inbounds nuw %struct.cdf_header_t, ptr %17, i32 0, i32 6
  %19 = load i16, ptr %18, align 8, !tbaa !23
  %20 = zext i16 %19 to i32
  %21 = shl i32 1, %20
  %22 = sext i32 %21 to i64
  store i64 %22, ptr %14, align 8, !tbaa !14
  call void @llvm.lifetime.start.p0(i64 8, ptr %15) #13
  %23 = load i64, ptr %14, align 8, !tbaa !14
  %24 = udiv i64 -1, %23
  %25 = load i32, ptr %13, align 4, !tbaa !12
  %26 = sext i32 %25 to i64
  %27 = icmp ult i64 %24, %26
  br i1 %27, label %28, label %29

28:                                               ; preds = %6
  store i64 -1, ptr %7, align 8
  store i32 1, ptr %16, align 4
  br label %71

29:                                               ; preds = %6
  %30 = load i32, ptr %13, align 4, !tbaa !12
  %31 = sext i32 %30 to i64
  %32 = load ptr, ptr %12, align 8, !tbaa !16
  %33 = getelementptr inbounds nuw %struct.cdf_header_t, ptr %32, i32 0, i32 6
  %34 = load i16, ptr %33, align 8, !tbaa !23
  %35 = zext i16 %34 to i32
  %36 = shl i32 1, %35
  %37 = sext i32 %36 to i64
  %38 = mul i64 %31, %37
  store i64 %38, ptr %15, align 8, !tbaa !14
  %39 = load i64, ptr %15, align 8, !tbaa !14
  %40 = load i64, ptr %11, align 8, !tbaa !14
  %41 = add i64 %39, %40
  %42 = load ptr, ptr %12, align 8, !tbaa !16
  %43 = getelementptr inbounds nuw %struct.cdf_header_t, ptr %42, i32 0, i32 5
  %44 = load i16, ptr %43, align 2, !tbaa !22
  %45 = zext i16 %44 to i32
  %46 = shl i32 1, %45
  %47 = sext i32 %46 to i64
  %48 = load ptr, ptr %8, align 8, !tbaa !16
  %49 = getelementptr inbounds nuw %struct.cdf_stream_t, ptr %48, i32 0, i32 1
  %50 = load i64, ptr %49, align 8, !tbaa !43
  %51 = mul i64 %47, %50
  %52 = icmp ugt i64 %41, %51
  br i1 %52, label %53, label %54

53:                                               ; preds = %29
  br label %69

54:                                               ; preds = %29
  %55 = load ptr, ptr %9, align 8, !tbaa !16
  %56 = ptrtoint ptr %55 to i64
  %57 = inttoptr i64 %56 to ptr
  %58 = load i64, ptr %10, align 8, !tbaa !14
  %59 = getelementptr inbounds nuw i8, ptr %57, i64 %58
  %60 = load ptr, ptr %8, align 8, !tbaa !16
  %61 = getelementptr inbounds nuw %struct.cdf_stream_t, ptr %60, i32 0, i32 0
  %62 = load ptr, ptr %61, align 8, !tbaa !47
  %63 = ptrtoint ptr %62 to i64
  %64 = inttoptr i64 %63 to ptr
  %65 = load i64, ptr %15, align 8, !tbaa !14
  %66 = getelementptr inbounds nuw i8, ptr %64, i64 %65
  %67 = load i64, ptr %11, align 8, !tbaa !14
  call void @llvm.memcpy.p0.p0.i64(ptr align 1 %59, ptr align 1 %66, i64 %67, i1 false)
  %68 = load i64, ptr %11, align 8, !tbaa !14
  store i64 %68, ptr %7, align 8
  store i32 1, ptr %16, align 4
  br label %71

69:                                               ; preds = %53
  %70 = call ptr @__errno_location() #14
  store i32 22, ptr %70, align 4, !tbaa !12
  store i64 -1, ptr %7, align 8
  store i32 1, ptr %16, align 4
  br label %71

71:                                               ; preds = %69, %54, %28
  call void @llvm.lifetime.end.p0(i64 8, ptr %15) #13
  call void @llvm.lifetime.end.p0(i64 8, ptr %14) #13
  %72 = load i64, ptr %7, align 8
  ret i64 %72
}