; Function Attrs: mustprogress nofree nosync nounwind willreturn memory(readwrite, inaccessiblemem: none) uwtable
define hidden noundef i64 @cdf_read_short_sector(ptr noundef readonly captures(none) %0, ptr noundef writeonly captures(none) %1, i64 noundef %2, i64 noundef %3, ptr noundef readonly captures(none) %4, i32 noundef %5) local_unnamed_addr #10 {
  %7 = getelementptr inbounds nuw i8, ptr %4, i64 32
  %8 = load i16, ptr %7, align 8, !tbaa !20
  %9 = zext nneg i16 %8 to i32
  %10 = shl nuw i32 1, %9
  %11 = sext i32 %10 to i64
  %12 = sext i32 %5 to i64
  %mul = tail call { i64, i1 } @llvm.umul.with.overflow.i64(i64 %11, i64 %12)
  %mul.ov = extractvalue { i64, i1 } %mul, 1
  br i1 %mul.ov, label %31, label %13

13:                                               ; preds = %6
  %14 = mul nsw i64 %11, %12
  %15 = add i64 %14, %3
  %16 = getelementptr inbounds nuw i8, ptr %4, i64 30
  %17 = load i16, ptr %16, align 2, !tbaa !19
  %18 = zext nneg i16 %17 to i32
  %19 = shl nuw i32 1, %18
  %20 = sext i32 %19 to i64
  %21 = getelementptr inbounds nuw i8, ptr %0, i64 8
  %22 = load i64, ptr %21, align 8, !tbaa !22
  %23 = mul i64 %22, %20
  %24 = icmp ugt i64 %15, %23
  br i1 %24, label %29, label %25

25:                                               ; preds = %13
  %26 = getelementptr inbounds nuw i8, ptr %1, i64 %2
  %27 = load ptr, ptr %0, align 8, !tbaa !4
  %28 = getelementptr inbounds nuw i8, ptr %27, i64 %14
  tail call void @llvm.memcpy.p0.p0.i64(ptr align 1 %26, ptr align 1 %28, i64 %3, i1 false)
  br label %31

29:                                               ; preds = %13
  %30 = tail call ptr @__errno_location() #22
  store i32 22, ptr %30, align 4, !tbaa !21
  br label %31

31:                                               ; preds = %6, %29, %25
  %.0 = phi i64 [ -1, %29 ], [ %3, %25 ], [ -1, %6 ]
  ret i64 %.0
}